; Function Attrs: nounwind uwtable
define internal range(i32 -5, 1) i32 @send_stream_selection_request(ptr noundef initializes((24, 68)) %0) #0 {
  %2 = getelementptr inbounds nuw i8, ptr %0, i64 24
  %3 = getelementptr inbounds nuw i8, ptr %0, i64 16
  store i32 1, ptr %2, align 1, !tbaa !36
  %4 = getelementptr inbounds nuw i8, ptr %0, i64 28
  store i32 -1341392178, ptr %4, align 1, !tbaa !36
  %5 = getelementptr inbounds nuw i8, ptr %0, i64 32
  store i32 0, ptr %5, align 1, !tbaa !36
  %6 = getelementptr inbounds nuw i8, ptr %0, i64 36
  store i32 542330189, ptr %6, align 1, !tbaa !36
  %7 = getelementptr inbounds nuw i8, ptr %0, i64 40
  store i32 0, ptr %7, align 1, !tbaa !36
  %8 = getelementptr inbounds nuw i8, ptr %0, i64 44
  %9 = getelementptr inbounds nuw i8, ptr %0, i64 66120
  %10 = load i32, ptr %9, align 8, !tbaa !37
  %11 = add nsw i32 %10, 1
  store i32 %11, ptr %9, align 8, !tbaa !37
  store i32 %10, ptr %8, align 1, !tbaa !36
  %12 = getelementptr inbounds nuw i8, ptr %0, i64 48
  store i64 0, ptr %12, align 1, !tbaa !36
  %13 = getelementptr inbounds nuw i8, ptr %0, i64 56
  store i32 0, ptr %13, align 1, !tbaa !36
  %14 = getelementptr inbounds nuw i8, ptr %0, i64 60
  store i16 51, ptr %14, align 1, !tbaa !36
  %15 = getelementptr inbounds nuw i8, ptr %0, i64 62
  store i16 3, ptr %15, align 1, !tbaa !36
  %16 = getelementptr inbounds nuw i8, ptr %0, i64 64
  %17 = getelementptr inbounds nuw i8, ptr %0, i64 66112
  %18 = load i32, ptr %17, align 8, !tbaa !28
  store i32 %18, ptr %16, align 1, !tbaa !36
  %19 = getelementptr inbounds nuw i8, ptr %0, i64 68
  store ptr %19, ptr %3, align 8, !tbaa !38
  %20 = icmp sgt i32 %18, 0
  br i1 %20, label %.lr.ph, label %._crit_edge

.lr.ph:                                           ; preds = %1
  %21 = getelementptr inbounds nuw i8, ptr %0, i64 8
  br label %22

22:                                               ; preds = %.lr.ph, %22
  %23 = phi ptr [ %19, %.lr.ph ], [ %33, %22 ]
  %indvars.iv = phi i64 [ 0, %.lr.ph ], [ %indvars.iv.next, %22 ]
  store i16 -1, ptr %23, align 1, !tbaa !36
  %24 = load ptr, ptr %3, align 8, !tbaa !38
  %25 = getelementptr inbounds nuw i8, ptr %24, i64 2
  store ptr %25, ptr %3, align 8, !tbaa !38
  %26 = load ptr, ptr %21, align 8, !tbaa !42
  %27 = getelementptr inbounds nuw %struct.MMSStream, ptr %26, i64 %indvars.iv
  %28 = load i32, ptr %27, align 4, !tbaa !43
  %29 = trunc i32 %28 to i16
  store i16 %29, ptr %25, align 1, !tbaa !36
  %30 = load ptr, ptr %3, align 8, !tbaa !38
  %31 = getelementptr inbounds nuw i8, ptr %30, i64 2
  store ptr %31, ptr %3, align 8, !tbaa !38
  store i16 0, ptr %31, align 1, !tbaa !36
  %32 = load ptr, ptr %3, align 8, !tbaa !38
  %33 = getelementptr inbounds nuw i8, ptr %32, i64 2
  store ptr %33, ptr %3, align 8, !tbaa !38
  %indvars.iv.next = add nuw nsw i64 %indvars.iv, 1
  %34 = load i32, ptr %17, align 8, !tbaa !28
  %35 = sext i32 %34 to i64
  %36 = icmp slt i64 %indvars.iv.next, %35
  br i1 %36, label %22, label %._crit_edge, !llvm.loop !45

._crit_edge:                                      ; preds = %22, %1
  %37 = phi ptr [ %19, %1 ], [ %33, %22 ]
  %38 = ptrtoint ptr %37 to i64
  %39 = ptrtoint ptr %2 to i64
  %40 = sub i64 %38, %39
  %41 = trunc i64 %40 to i32
  %42 = add nsw i32 %41, 7
  %43 = and i32 %42, -8
  %44 = add nsw i32 %43, -16
  %45 = ashr exact i32 %44, 3
  store i32 %44, ptr %5, align 1, !tbaa !36
  store i32 %45, ptr %7, align 1, !tbaa !36
  %46 = add nsw i32 %45, -2
  store i32 %46, ptr %13, align 1, !tbaa !36
  %47 = sub nsw i32 %43, %41
  %48 = sext i32 %47 to i64
  tail call void @llvm.memset.p0.i64(ptr nonnull align 1 %37, i8 0, i64 %48, i1 false)
  %49 = load ptr, ptr %0, align 8, !tbaa !31
  %50 = tail call i32 @ffurl_write2(ptr noundef %49, ptr noundef nonnull %2, i32 noundef range(i32 0, -7) %43) #7
  %.not.i = icmp eq i32 %50, %43
  br i1 %.not.i, label %send_command_packet.exit, label %51

51:                                               ; preds = %._crit_edge
  %52 = load ptr, ptr %0, align 8, !tbaa !31
  %53 = icmp slt i32 %50, 0
  br i1 %53, label %54, label %57

54:                                               ; preds = %51
  %55 = sub nsw i32 0, %50
  %56 = tail call ptr @strerror(i32 noundef %55) #7
  br label %57

57:                                               ; preds = %54, %51
  %58 = phi ptr [ %56, %54 ], [ @.str.11, %51 ]
  tail call void (ptr, i32, ptr, ...) @av_log(ptr noundef %52, i32 noundef 16, ptr noundef nonnull @.str.19, i32 noundef %43, i32 noundef %50, ptr noundef %58) #7
  br label %send_command_packet.exit

send_command_packet.exit:                         ; preds = %._crit_edge, %57
  %.0.i = phi i32 [ -5, %57 ], [ 0, %._crit_edge ]
  ret i32 %.0.i
}